; Function Attrs: nounwind uwtable
define i32 @pmix_bfrops_base_unpack_string(ptr noundef %0, ptr noundef %1, ptr noundef writeonly captures(none) %2, ptr noundef readonly captures(none) %3, i16 noundef zeroext %4) local_unnamed_addr #0 {
  %6 = alloca i32, align 4
  %7 = alloca i32, align 4
  call void @llvm.lifetime.start.p0(i64 4, ptr nonnull %6) #10
  call void @llvm.lifetime.start.p0(i64 4, ptr nonnull %7) #10
  store i32 1, ptr %7, align 4, !tbaa !3
  %8 = getelementptr inbounds nuw i8, ptr %0, i64 128
  %9 = getelementptr inbounds nuw i8, ptr %0, i64 152
  %10 = load i32, ptr %3, align 4, !tbaa !3
  %11 = icmp sgt i32 %10, 0
  br i1 %11, label %.lr.ph, label %.thread

.lr.ph:                                           ; preds = %5, %41
  %indvars.iv = phi i64 [ %indvars.iv.next, %41 ], [ 0, %5 ]
  %12 = load i32, ptr %8, align 8, !tbaa !26
  %.not.i = icmp sgt i32 %12, 9
  br i1 %.not.i, label %pmix_pointer_array_get_item.exit, label %.thread, !prof !29

pmix_pointer_array_get_item.exit:                 ; preds = %.lr.ph
  %13 = load ptr, ptr %9, align 8, !tbaa !30
  %14 = getelementptr inbounds nuw i8, ptr %13, i64 72
  %15 = load ptr, ptr %14, align 8, !tbaa !31
  %16 = icmp eq ptr %15, null
  br i1 %16, label %.thread, label %17

17:                                               ; preds = %pmix_pointer_array_get_item.exit
  %18 = getelementptr inbounds nuw i8, ptr %15, i64 144
  %19 = load ptr, ptr %18, align 8, !tbaa !32
  %20 = call i32 %19(ptr noundef nonnull %0, ptr noundef %1, ptr noundef nonnull %6, ptr noundef nonnull %7, i16 noundef zeroext 9) #10
  %.not = icmp eq i32 %20, 0
  br i1 %.not, label %21, label %.thread

21:                                               ; preds = %17
  %22 = load i32, ptr %6, align 4, !tbaa !3
  %23 = icmp eq i32 %22, 0
  br i1 %23, label %24, label %26

24:                                               ; preds = %21
  %25 = getelementptr inbounds nuw ptr, ptr %2, i64 %indvars.iv
  store ptr null, ptr %25, align 8, !tbaa !63
  br label %41

26:                                               ; preds = %21
  %27 = sext i32 %22 to i64
  %28 = call noalias ptr @malloc(i64 noundef %27) #12
  %29 = getelementptr inbounds nuw ptr, ptr %2, i64 %indvars.iv
  store ptr %28, ptr %29, align 8, !tbaa !63
  %30 = icmp eq ptr %28, null
  br i1 %30, label %.thread, label %31

31:                                               ; preds = %26
  %32 = load i32, ptr %8, align 8, !tbaa !26
  %.not.i32 = icmp sgt i32 %32, 2
  br i1 %.not.i32, label %pmix_pointer_array_get_item.exit34, label %.thread, !prof !29

pmix_pointer_array_get_item.exit34:               ; preds = %31
  %33 = load ptr, ptr %9, align 8, !tbaa !30
  %34 = getelementptr inbounds nuw i8, ptr %33, i64 16
  %35 = load ptr, ptr %34, align 8, !tbaa !31
  %36 = icmp eq ptr %35, null
  br i1 %36, label %.thread, label %37

37:                                               ; preds = %pmix_pointer_array_get_item.exit34
  %38 = getelementptr inbounds nuw i8, ptr %35, i64 144
  %39 = load ptr, ptr %38, align 8, !tbaa !32
  %40 = call i32 %39(ptr noundef nonnull %0, ptr noundef %1, ptr noundef nonnull %28, ptr noundef nonnull %6, i16 noundef zeroext 2) #10
  %.not31 = icmp eq i32 %40, 0
  br i1 %.not31, label %41, label %.thread

41:                                               ; preds = %24, %37
  %indvars.iv.next = add nuw nsw i64 %indvars.iv, 1
  %42 = load i32, ptr %3, align 4, !tbaa !3
  %43 = sext i32 %42 to i64
  %44 = icmp slt i64 %indvars.iv.next, %43
  br i1 %44, label %.lr.ph, label %.thread, !llvm.loop !64

.thread:                                          ; preds = %17, %26, %37, %41, %pmix_pointer_array_get_item.exit, %.lr.ph, %pmix_pointer_array_get_item.exit34, %31, %5
  %.0 = phi i32 [ 0, %5 ], [ -16, %31 ], [ -16, %pmix_pointer_array_get_item.exit34 ], [ -16, %.lr.ph ], [ -16, %pmix_pointer_array_get_item.exit ], [ 0, %41 ], [ %40, %37 ], [ -29, %26 ], [ %20, %17 ]
  call void @llvm.lifetime.end.p0(i64 4, ptr nonnull %7) #10
  call void @llvm.lifetime.end.p0(i64 4, ptr nonnull %6) #10
  ret i32 %.0
}